; Function Attrs: nounwind uwtable
define range(i32 0, 2) i32 @Inter_ManCheckAllStates(ptr noundef %0) local_unnamed_addr #0 {
  %2 = alloca %struct.timespec, align 8
  %3 = alloca %struct.timespec, align 8
  call void @llvm.lifetime.start.p0(i64 16, ptr nonnull %3) #9
  %4 = call i32 @clock_gettime(i32 noundef 1, ptr noundef nonnull %3) #9
  %5 = icmp slt i32 %4, 0
  br i1 %5, label %Abc_Clock.exit, label %6

6:                                                ; preds = %1
  %7 = load i64, ptr %3, align 8, !tbaa !45
  %.neg12 = mul i64 %7, -1000000
  %8 = getelementptr inbounds nuw i8, ptr %3, i64 8
  %9 = load i64, ptr %8, align 8, !tbaa !47
  %.neg = sdiv i64 %9, -1000
  %.neg13 = add i64 %.neg, %.neg12
  br label %Abc_Clock.exit

Abc_Clock.exit:                                   ; preds = %1, %6
  %.0.i.neg = phi i64 [ %.neg13, %6 ], [ 1, %1 ]
  call void @llvm.lifetime.end.p0(i64 16, ptr nonnull %3) #9
  %10 = getelementptr i8, ptr %0, i64 104
  %.val = load i32, ptr %10, align 8, !tbaa !3
  %11 = call ptr @Cnf_Derive(ptr noundef %0, i32 noundef %.val) #9
  %12 = call ptr @Cnf_DataWriteIntoSolver(ptr noundef %11, i32 noundef 1, i32 noundef 0) #9
  call void @Cnf_DataFree(ptr noundef %11) #9
  %13 = icmp eq ptr %12, null
  br i1 %13, label %30, label %14

14:                                               ; preds = %Abc_Clock.exit
  %15 = call i32 @sat_solver_solve(ptr noundef nonnull %12, ptr noundef null, ptr noundef null, i64 noundef 0, i64 noundef 0, i64 noundef 0, i64 noundef 0) #9
  call void @sat_solver_delete(ptr noundef nonnull %12) #9
  call void (i32, ptr, ...) @Abc_Print(i32 poison, ptr noundef nonnull @.str, ptr noundef nonnull @.str.1)
  call void @llvm.lifetime.start.p0(i64 16, ptr nonnull %2) #9
  %16 = call i32 @clock_gettime(i32 noundef 1, ptr noundef nonnull %2) #9
  %17 = icmp slt i32 %16, 0
  br i1 %17, label %Abc_Clock.exit11, label %18

18:                                               ; preds = %14
  %19 = load i64, ptr %2, align 8, !tbaa !45
  %20 = mul nsw i64 %19, 1000000
  %21 = getelementptr inbounds nuw i8, ptr %2, i64 8
  %22 = load i64, ptr %21, align 8, !tbaa !47
  %23 = sdiv i64 %22, 1000
  %24 = add nsw i64 %23, %20
  br label %Abc_Clock.exit11

Abc_Clock.exit11:                                 ; preds = %14, %18
  %.0.i10 = phi i64 [ %24, %18 ], [ -1, %14 ]
  call void @llvm.lifetime.end.p0(i64 16, ptr nonnull %2) #9
  %25 = add i64 %.0.i10, %.0.i.neg
  %26 = sitofp i64 %25 to double
  %27 = fdiv double %26, 1.000000e+06
  call void (i32, ptr, ...) @Abc_Print(i32 poison, ptr noundef nonnull @.str.2, double noundef %27)
  %28 = icmp eq i32 %15, -1
  %29 = zext i1 %28 to i32
  br label %30

30:                                               ; preds = %Abc_Clock.exit, %Abc_Clock.exit11
  %.0 = phi i32 [ %29, %Abc_Clock.exit11 ], [ 1, %Abc_Clock.exit ]
  ret i32 %.0
}